; Function Attrs: mustprogress nofree norecurse nosync nounwind ssp willreturn memory(argmem: read) uwtable
define noundef double @_ZNK6open3d9pipelines12registration9TukeyLoss6WeightEd(ptr noundef nonnull readonly align 8 captures(none) dereferenceable(16) %0, double noundef %1) unnamed_addr #1 align 2 {
  %3 = tail call noundef double @llvm.fabs.f64(double %1)
  %4 = getelementptr inbounds nuw i8, ptr %0, i64 8
  %5 = load double, ptr %4, align 8, !tbaa !14
  %6 = fdiv double %3, %5
  %7 = fcmp olt double %6, 1.000000e+00
  %.sroa.speculated = select i1 %7, double %6, double 1.000000e+00
  %8 = fmul double %.sroa.speculated, %.sroa.speculated
  %9 = fsub double 1.000000e+00, %8
  %10 = fmul double %9, %9
  ret double %10
}